; Function Attrs: mustprogress uwtable
define internal void @"_ZNSt17_Function_handlerIFN7rocksdb6StatusERKNS0_13ConfigOptionsERKNSt7__cxx1112basic_stringIcSt11char_traitsIcESaIcEEESC_PvENS0_3$_1EE9_M_invokeERKSt9_Any_dataS4_SC_SC_OSD_"(ptr noalias sret(%"class.rocksdb::Status") align 8 %agg.result, ptr nocapture nonnull readnone align 8 %__functor, ptr noundef nonnull align 8 dereferenceable(80) %__args, ptr noundef nonnull align 8 dereferenceable(32) %__args1, ptr noundef nonnull align 8 dereferenceable(32) %__args3, ptr nocapture noundef nonnull readonly align 8 dereferenceable(8) %__args5) #2 align 2 personality ptr @__gxx_personality_v0 {
entry:
  %__args5.val = load ptr, ptr %__args5, align 8
  %call.i.i.i.i = tail call noundef i64 @_ZNKSt7__cxx1112basic_stringIcSt11char_traitsIcESaIcEE4sizeEv(ptr noundef nonnull align 8 dereferenceable(32) %__args1) #27, !noalias !176
  %call1.i.i.i.i = tail call noundef i64 @_ZNKSt7__cxx1112basic_stringIcSt11char_traitsIcESaIcEE4sizeEv(ptr noundef nonnull align 8 dereferenceable(32) @_ZN7rocksdbL16kOptNameCompOptsB5cxx11E) #27, !noalias !176
  %cmp.i.i.i.i = icmp eq i64 %call.i.i.i.i, %call1.i.i.i.i
  br i1 %cmp.i.i.i.i, label %land.rhs.i.i.i.i, label %if.else.i.i.i

land.rhs.i.i.i.i:                                 ; preds = %entry
  %call2.i.i.i.i = tail call noundef ptr @_ZNKSt7__cxx1112basic_stringIcSt11char_traitsIcESaIcEE4dataEv(ptr noundef nonnull align 8 dereferenceable(32) %__args1) #27, !noalias !176
  %call3.i.i.i.i = tail call noundef ptr @_ZNKSt7__cxx1112basic_stringIcSt11char_traitsIcESaIcEE4dataEv(ptr noundef nonnull align 8 dereferenceable(32) @_ZN7rocksdbL16kOptNameCompOptsB5cxx11E) #27, !noalias !176
  %call4.i.i.i.i = tail call noundef i64 @_ZNKSt7__cxx1112basic_stringIcSt11char_traitsIcESaIcEE4sizeEv(ptr noundef nonnull align 8 dereferenceable(32) %__args1) #27, !noalias !176
  %cmp.i.i.i.i.i = icmp eq i64 %call4.i.i.i.i, 0
  br i1 %cmp.i.i.i.i.i, label %land.lhs.true.i.i.i, label %_ZSteqIcEN9__gnu_cxx11__enable_ifIXsr9__is_charIT_EE7__valueEbE6__typeERKNSt7__cxx1112basic_stringIS2_St11char_traitsIS2_ESaIS2_EEESC_.exit.i.i.i

_ZSteqIcEN9__gnu_cxx11__enable_ifIXsr9__is_charIT_EE7__valueEbE6__typeERKNSt7__cxx1112basic_stringIS2_St11char_traitsIS2_ESaIS2_EEESC_.exit.i.i.i: ; preds = %land.rhs.i.i.i.i
  %bcmp.i.i.i.i = tail call i32 @bcmp(ptr %call2.i.i.i.i, ptr %call3.i.i.i.i, i64 %call4.i.i.i.i), !noalias !176
  %0 = icmp eq i32 %bcmp.i.i.i.i, 0
  br i1 %0, label %land.lhs.true.i.i.i, label %if.else.i.i.i

land.lhs.true.i.i.i:                              ; preds = %_ZSteqIcEN9__gnu_cxx11__enable_ifIXsr9__is_charIT_EE7__valueEbE6__typeERKNSt7__cxx1112basic_stringIS2_St11char_traitsIS2_ESaIS2_EEESC_.exit.i.i.i, %land.rhs.i.i.i.i
  %call2.i.i.i = tail call noundef i64 @_ZNKSt7__cxx1112basic_stringIcSt11char_traitsIcESaIcEE4findEcm(ptr noundef nonnull align 8 dereferenceable(32) %__args3, i8 noundef signext 61, i64 noundef 0) #27, !noalias !176
  %cmp.i.i.i = icmp eq i64 %call2.i.i.i, -1
  br i1 %cmp.i.i.i, label %if.then.i.i.i, label %if.else.i.i.i

if.then.i.i.i:                                    ; preds = %land.lhs.true.i.i.i
  tail call fastcc void @_ZN7rocksdbL23ParseCompressionOptionsERKNSt7__cxx1112basic_stringIcSt11char_traitsIcESaIcEEES7_RNS_18CompressionOptionsE(ptr noalias align 8 %agg.result, ptr noundef nonnull align 8 dereferenceable(32) %__args3, ptr noundef nonnull align 8 dereferenceable(32) %__args1, ptr noundef nonnull align 8 dereferenceable(49) %__args5.val)
  br label %"_ZSt10__invoke_rIN7rocksdb6StatusERNS0_3$_1EJRKNS0_13ConfigOptionsERKNSt7__cxx1112basic_stringIcSt11char_traitsIcESaIcEEESE_PvEENSt9enable_ifIX16is_invocable_r_vIT_T0_DpT1_EESH_E4typeEOSI_DpOSJ_.exit"

if.else.i.i.i:                                    ; preds = %land.lhs.true.i.i.i, %_ZSteqIcEN9__gnu_cxx11__enable_ifIXsr9__is_charIT_EE7__valueEbE6__typeERKNSt7__cxx1112basic_stringIS2_St11char_traitsIS2_ESaIS2_EEESC_.exit.i.i.i, %entry
  tail call void @_ZN7rocksdb14OptionTypeInfo11ParseStructERKNS_13ConfigOptionsERKNSt7__cxx1112basic_stringIcSt11char_traitsIcESaIcEEEPKSt13unordered_mapIS9_S0_St4hashIS9_ESt8equal_toIS9_ESaISt4pairISA_S0_EEESB_SB_Pv(ptr sret(%"class.rocksdb::Status") align 8 %agg.result, ptr noundef nonnull align 8 dereferenceable(80) %__args, ptr noundef nonnull align 8 dereferenceable(32) @_ZN7rocksdbL16kOptNameCompOptsB5cxx11E, ptr noundef nonnull @_ZN7rocksdbL29compression_options_type_infoB5cxx11E, ptr noundef nonnull align 8 dereferenceable(32) %__args1, ptr noundef nonnull align 8 dereferenceable(32) %__args3, ptr noundef %__args5.val)
  br label %"_ZSt10__invoke_rIN7rocksdb6StatusERNS0_3$_1EJRKNS0_13ConfigOptionsERKNSt7__cxx1112basic_stringIcSt11char_traitsIcESaIcEEESE_PvEENSt9enable_ifIX16is_invocable_r_vIT_T0_DpT1_EESH_E4typeEOSI_DpOSJ_.exit"

"_ZSt10__invoke_rIN7rocksdb6StatusERNS0_3$_1EJRKNS0_13ConfigOptionsERKNSt7__cxx1112basic_stringIcSt11char_traitsIcESaIcEEESE_PvEENSt9enable_ifIX16is_invocable_r_vIT_T0_DpT1_EESH_E4typeEOSI_DpOSJ_.exit": ; preds = %if.then.i.i.i, %if.else.i.i.i
  ret void
}